
helloworld.exe:     file format pei-x86-64


Disassembly of section .text:

0000000140001000 <.text>:
   140001000:	55                   	push   rbp
   140001001:	48 89 e5             	mov    rbp,rsp
   140001004:	48 83 ec 20          	sub    rsp,0x20
   140001008:	48 8d 0d f1 1f 00 00 	lea    rcx,[rip+0x1ff1]        # 0x140003000
   14000100f:	e8 14 00 00 00       	call   0x140001028
   140001014:	48 31 c0             	xor    rax,rax
   140001017:	e8 04 00 00 00       	call   0x140001020
   14000101c:	cc                   	int3
   14000101d:	cc                   	int3
   14000101e:	cc                   	int3
   14000101f:	cc                   	int3
   140001020:	ff 25 da 0f 00 00    	jmp    QWORD PTR [rip+0xfda]        # 0x140002000
   140001026:	cc                   	int3
   140001027:	cc                   	int3
   140001028:	48 8b c4             	mov    rax,rsp
   14000102b:	48 89 48 08          	mov    QWORD PTR [rax+0x8],rcx
   14000102f:	48 89 50 10          	mov    QWORD PTR [rax+0x10],rdx
   140001033:	4c 89 40 18          	mov    QWORD PTR [rax+0x18],r8
   140001037:	4c 89 48 20          	mov    QWORD PTR [rax+0x20],r9
   14000103b:	53                   	push   rbx
   14000103c:	57                   	push   rdi
   14000103d:	48 83 ec 38          	sub    rsp,0x38
   140001041:	b9 01 00 00 00       	mov    ecx,0x1
   140001046:	48 8d 78 10          	lea    rdi,[rax+0x10]
   14000104a:	e8 a6 0b 00 00       	call   0x140001bf5
   14000104f:	48 8b d8             	mov    rbx,rax
   140001052:	e8 21 00 00 00       	call   0x140001078
   140001057:	4c 8b 44 24 50       	mov    r8,QWORD PTR [rsp+0x50]
   14000105c:	45 33 c9             	xor    r9d,r9d
   14000105f:	48 8b d3             	mov    rdx,rbx
   140001062:	48 89 7c 24 20       	mov    QWORD PTR [rsp+0x20],rdi
   140001067:	48 8b 08             	mov    rcx,QWORD PTR [rax]
   14000106a:	e8 8c 0b 00 00       	call   0x140001bfb
   14000106f:	48 83 c4 38          	add    rsp,0x38
   140001073:	5f                   	pop    rdi
   140001074:	5b                   	pop    rbx
   140001075:	c3                   	ret
   140001076:	cc                   	int3
   140001077:	cc                   	int3
   140001078:	48 8d 05 21 20 00 00 	lea    rax,[rip+0x2021]        # 0x1400030a0
   14000107f:	c3                   	ret
   140001080:	48 8d 05 21 20 00 00 	lea    rax,[rip+0x2021]        # 0x1400030a8
   140001087:	c3                   	ret
   140001088:	40 53                	rex push rbx
   14000108a:	48 83 ec 20          	sub    rsp,0x20
   14000108e:	b9 01 00 00 00       	mov    ecx,0x1
   140001093:	e8 6f 0b 00 00       	call   0x140001c07
   140001098:	e8 57 05 00 00       	call   0x1400015f4
   14000109d:	8b c8                	mov    ecx,eax
   14000109f:	e8 99 0b 00 00       	call   0x140001c3d
   1400010a4:	e8 3f 05 00 00       	call   0x1400015e8
   1400010a9:	8b d8                	mov    ebx,eax
   1400010ab:	e8 bd 0b 00 00       	call   0x140001c6d
   1400010b0:	b9 01 00 00 00       	mov    ecx,0x1
   1400010b5:	89 18                	mov    DWORD PTR [rax],ebx
   1400010b7:	e8 b8 02 00 00       	call   0x140001374
   1400010bc:	84 c0                	test   al,al
   1400010be:	74 73                	je     0x140001133
   1400010c0:	e8 9f 07 00 00       	call   0x140001864
   1400010c5:	48 8d 0d d4 07 00 00 	lea    rcx,[rip+0x7d4]        # 0x1400018a0
   1400010cc:	e8 53 04 00 00       	call   0x140001524
   1400010d1:	e8 16 05 00 00       	call   0x1400015ec
   1400010d6:	8b c8                	mov    ecx,eax
   1400010d8:	e8 36 0b 00 00       	call   0x140001c13
   1400010dd:	85 c0                	test   eax,eax
   1400010df:	75 52                	jne    0x140001133
   1400010e1:	e8 16 05 00 00       	call   0x1400015fc
   1400010e6:	e8 45 05 00 00       	call   0x140001630
   1400010eb:	85 c0                	test   eax,eax
   1400010ed:	74 0c                	je     0x1400010fb
   1400010ef:	48 8d 0d f2 04 00 00 	lea    rcx,[rip+0x4f2]        # 0x1400015e8
   1400010f6:	e8 12 0b 00 00       	call   0x140001c0d
   1400010fb:	e8 10 05 00 00       	call   0x140001610
   140001100:	e8 0b 05 00 00       	call   0x140001610
   140001105:	e8 de 04 00 00       	call   0x1400015e8
   14000110a:	8b c8                	mov    ecx,eax
   14000110c:	e8 50 0b 00 00       	call   0x140001c61
   140001111:	e8 f6 04 00 00       	call   0x14000160c
   140001116:	84 c0                	test   al,al
   140001118:	74 05                	je     0x14000111f
   14000111a:	e8 fa 0a 00 00       	call   0x140001c19
   14000111f:	e8 c4 04 00 00       	call   0x1400015e8
   140001124:	e8 73 06 00 00       	call   0x14000179c
   140001129:	85 c0                	test   eax,eax
   14000112b:	75 06                	jne    0x140001133
   14000112d:	48 83 c4 20          	add    rsp,0x20
   140001131:	5b                   	pop    rbx
   140001132:	c3                   	ret
   140001133:	b9 07 00 00 00       	mov    ecx,0x7
   140001138:	e8 17 05 00 00       	call   0x140001654
   14000113d:	cc                   	int3
   14000113e:	cc                   	int3
   14000113f:	cc                   	int3
   140001140:	48 83 ec 28          	sub    rsp,0x28
   140001144:	e8 cb 04 00 00       	call   0x140001614
   140001149:	33 c0                	xor    eax,eax
   14000114b:	48 83 c4 28          	add    rsp,0x28
   14000114f:	c3                   	ret
   140001150:	48 83 ec 28          	sub    rsp,0x28
   140001154:	e8 9f 06 00 00       	call   0x1400017f8
   140001159:	e8 8a 04 00 00       	call   0x1400015e8
   14000115e:	8b c8                	mov    ecx,eax
   140001160:	48 83 c4 28          	add    rsp,0x28
   140001164:	e9 fe 0a 00 00       	jmp    0x140001c67
   140001169:	cc                   	int3
   14000116a:	cc                   	int3
   14000116b:	cc                   	int3
   14000116c:	48 89 5c 24 08       	mov    QWORD PTR [rsp+0x8],rbx
   140001171:	48 89 74 24 10       	mov    QWORD PTR [rsp+0x10],rsi
   140001176:	57                   	push   rdi
   140001177:	48 83 ec 30          	sub    rsp,0x30
   14000117b:	b9 01 00 00 00       	mov    ecx,0x1
   140001180:	e8 b3 01 00 00       	call   0x140001338
   140001185:	84 c0                	test   al,al
   140001187:	0f 84 36 01 00 00    	je     0x1400012c3
   14000118d:	40 32 f6             	xor    sil,sil
   140001190:	40 88 74 24 20       	mov    BYTE PTR [rsp+0x20],sil
   140001195:	e8 62 01 00 00       	call   0x1400012fc
   14000119a:	8a d8                	mov    bl,al
   14000119c:	8b 0d 0e 1f 00 00    	mov    ecx,DWORD PTR [rip+0x1f0e]        # 0x1400030b0
   1400011a2:	83 f9 01             	cmp    ecx,0x1
   1400011a5:	0f 84 23 01 00 00    	je     0x1400012ce
   1400011ab:	85 c9                	test   ecx,ecx
   1400011ad:	75 4a                	jne    0x1400011f9
   1400011af:	c7 05 f7 1e 00 00 01 	mov    DWORD PTR [rip+0x1ef7],0x1        # 0x1400030b0
   1400011b6:	00 00 00 
   1400011b9:	48 8d 15 48 10 00 00 	lea    rdx,[rip+0x1048]        # 0x140002208
   1400011c0:	48 8d 0d 21 10 00 00 	lea    rcx,[rip+0x1021]        # 0x1400021e8
   1400011c7:	e8 5f 0a 00 00       	call   0x140001c2b
   1400011cc:	85 c0                	test   eax,eax
   1400011ce:	74 0a                	je     0x1400011da
   1400011d0:	b8 ff 00 00 00       	mov    eax,0xff
   1400011d5:	e9 d9 00 00 00       	jmp    0x1400012b3
   1400011da:	48 8d 15 ff 0f 00 00 	lea    rdx,[rip+0xfff]        # 0x1400021e0
   1400011e1:	48 8d 0d e8 0f 00 00 	lea    rcx,[rip+0xfe8]        # 0x1400021d0
   1400011e8:	e8 38 0a 00 00       	call   0x140001c25
   1400011ed:	c7 05 b9 1e 00 00 02 	mov    DWORD PTR [rip+0x1eb9],0x2        # 0x1400030b0
   1400011f4:	00 00 00 
   1400011f7:	eb 08                	jmp    0x140001201
   1400011f9:	40 b6 01             	mov    sil,0x1
   1400011fc:	40 88 74 24 20       	mov    BYTE PTR [rsp+0x20],sil
   140001201:	8a cb                	mov    cl,bl
   140001203:	e8 90 02 00 00       	call   0x140001498
   140001208:	e8 2f 04 00 00       	call   0x14000163c
   14000120d:	48 8b d8             	mov    rbx,rax
   140001210:	48 83 38 00          	cmp    QWORD PTR [rax],0x0
   140001214:	74 1e                	je     0x140001234
   140001216:	48 8b c8             	mov    rcx,rax
   140001219:	e8 e2 01 00 00       	call   0x140001400
   14000121e:	84 c0                	test   al,al
   140001220:	74 12                	je     0x140001234
   140001222:	45 33 c0             	xor    r8d,r8d
   140001225:	41 8d 50 02          	lea    edx,[r8+0x2]
   140001229:	33 c9                	xor    ecx,ecx
   14000122b:	48 8b 03             	mov    rax,QWORD PTR [rbx]
   14000122e:	ff 15 74 0f 00 00    	call   QWORD PTR [rip+0xf74]        # 0x1400021a8
   140001234:	e8 0b 04 00 00       	call   0x140001644
   140001239:	48 8b d8             	mov    rbx,rax
   14000123c:	48 83 38 00          	cmp    QWORD PTR [rax],0x0
   140001240:	74 14                	je     0x140001256
   140001242:	48 8b c8             	mov    rcx,rax
   140001245:	e8 b6 01 00 00       	call   0x140001400
   14000124a:	84 c0                	test   al,al
   14000124c:	74 08                	je     0x140001256
   14000124e:	48 8b 0b             	mov    rcx,QWORD PTR [rbx]
   140001251:	e8 05 0a 00 00       	call   0x140001c5b
   140001256:	e8 c4 09 00 00       	call   0x140001c1f
   14000125b:	48 8b f8             	mov    rdi,rax
   14000125e:	e8 e6 09 00 00       	call   0x140001c49
   140001263:	48 8b 18             	mov    rbx,QWORD PTR [rax]
   140001266:	e8 d8 09 00 00       	call   0x140001c43
   14000126b:	4c 8b c7             	mov    r8,rdi
   14000126e:	48 8b d3             	mov    rdx,rbx
   140001271:	8b 08                	mov    ecx,DWORD PTR [rax]
   140001273:	e8 88 fd ff ff       	call   0x140001000
   140001278:	8b d8                	mov    ebx,eax
   14000127a:	e8 25 05 00 00       	call   0x1400017a4
   14000127f:	84 c0                	test   al,al
   140001281:	74 55                	je     0x1400012d8
   140001283:	40 84 f6             	test   sil,sil
   140001286:	75 05                	jne    0x14000128d
   140001288:	e8 c2 09 00 00       	call   0x140001c4f
   14000128d:	33 d2                	xor    edx,edx
   14000128f:	b1 01                	mov    cl,0x1
   140001291:	e8 26 02 00 00       	call   0x1400014bc
   140001296:	8b c3                	mov    eax,ebx
   140001298:	eb 19                	jmp    0x1400012b3
   14000129a:	8b d8                	mov    ebx,eax
   14000129c:	e8 03 05 00 00       	call   0x1400017a4
   1400012a1:	84 c0                	test   al,al
   1400012a3:	74 3b                	je     0x1400012e0
   1400012a5:	80 7c 24 20 00       	cmp    BYTE PTR [rsp+0x20],0x0
   1400012aa:	75 05                	jne    0x1400012b1
   1400012ac:	e8 a4 09 00 00       	call   0x140001c55
   1400012b1:	8b c3                	mov    eax,ebx
   1400012b3:	48 8b 5c 24 40       	mov    rbx,QWORD PTR [rsp+0x40]
   1400012b8:	48 8b 74 24 48       	mov    rsi,QWORD PTR [rsp+0x48]
   1400012bd:	48 83 c4 30          	add    rsp,0x30
   1400012c1:	5f                   	pop    rdi
   1400012c2:	c3                   	ret
   1400012c3:	b9 07 00 00 00       	mov    ecx,0x7
   1400012c8:	e8 87 03 00 00       	call   0x140001654
   1400012cd:	90                   	nop
   1400012ce:	b9 07 00 00 00       	mov    ecx,0x7
   1400012d3:	e8 7c 03 00 00       	call   0x140001654
   1400012d8:	8b cb                	mov    ecx,ebx
   1400012da:	e8 52 09 00 00       	call   0x140001c31
   1400012df:	90                   	nop
   1400012e0:	8b cb                	mov    ecx,ebx
   1400012e2:	e8 50 09 00 00       	call   0x140001c37
   1400012e7:	90                   	nop
   1400012e8:	48 83 ec 28          	sub    rsp,0x28
   1400012ec:	e8 4b 02 00 00       	call   0x14000153c
   1400012f1:	48 83 c4 28          	add    rsp,0x28
   1400012f5:	e9 72 fe ff ff       	jmp    0x14000116c
   1400012fa:	cc                   	int3
   1400012fb:	cc                   	int3
   1400012fc:	48 83 ec 28          	sub    rsp,0x28
   140001300:	e8 a3 08 00 00       	call   0x140001ba8
   140001305:	85 c0                	test   eax,eax
   140001307:	74 21                	je     0x14000132a
   140001309:	65 48 8b 04 25 30 00 	mov    rax,QWORD PTR gs:0x30
   140001310:	00 00 
   140001312:	48 8b 48 08          	mov    rcx,QWORD PTR [rax+0x8]
   140001316:	eb 05                	jmp    0x14000131d
   140001318:	48 3b c8             	cmp    rcx,rax
   14000131b:	74 14                	je     0x140001331
   14000131d:	33 c0                	xor    eax,eax
   14000131f:	f0 48 0f b1 0d 90 1d 	lock cmpxchg QWORD PTR [rip+0x1d90],rcx        # 0x1400030b8
   140001326:	00 00 
   140001328:	75 ee                	jne    0x140001318
   14000132a:	32 c0                	xor    al,al
   14000132c:	48 83 c4 28          	add    rsp,0x28
   140001330:	c3                   	ret
   140001331:	b0 01                	mov    al,0x1
   140001333:	eb f7                	jmp    0x14000132c
   140001335:	cc                   	int3
   140001336:	cc                   	int3
   140001337:	cc                   	int3
   140001338:	48 83 ec 28          	sub    rsp,0x28
   14000133c:	85 c9                	test   ecx,ecx
   14000133e:	75 07                	jne    0x140001347
   140001340:	c6 05 79 1d 00 00 01 	mov    BYTE PTR [rip+0x1d79],0x1        # 0x1400030c0
   140001347:	e8 90 05 00 00       	call   0x1400018dc
   14000134c:	e8 bb 02 00 00       	call   0x14000160c
   140001351:	84 c0                	test   al,al
   140001353:	75 04                	jne    0x140001359
   140001355:	32 c0                	xor    al,al
   140001357:	eb 14                	jmp    0x14000136d
   140001359:	e8 ae 02 00 00       	call   0x14000160c
   14000135e:	84 c0                	test   al,al
   140001360:	75 09                	jne    0x14000136b
   140001362:	33 c9                	xor    ecx,ecx
   140001364:	e8 a3 02 00 00       	call   0x14000160c
   140001369:	eb ea                	jmp    0x140001355
   14000136b:	b0 01                	mov    al,0x1
   14000136d:	48 83 c4 28          	add    rsp,0x28
   140001371:	c3                   	ret
   140001372:	cc                   	int3
   140001373:	cc                   	int3
   140001374:	40 53                	rex push rbx
   140001376:	48 83 ec 20          	sub    rsp,0x20
   14000137a:	80 3d 40 1d 00 00 00 	cmp    BYTE PTR [rip+0x1d40],0x0        # 0x1400030c1
   140001381:	8b d9                	mov    ebx,ecx
   140001383:	75 67                	jne    0x1400013ec
   140001385:	83 f9 01             	cmp    ecx,0x1
   140001388:	77 6a                	ja     0x1400013f4
   14000138a:	e8 19 08 00 00       	call   0x140001ba8
   14000138f:	85 c0                	test   eax,eax
   140001391:	74 28                	je     0x1400013bb
   140001393:	85 db                	test   ebx,ebx
   140001395:	75 24                	jne    0x1400013bb
   140001397:	48 8d 0d 2a 1d 00 00 	lea    rcx,[rip+0x1d2a]        # 0x1400030c8
   14000139e:	e8 d0 08 00 00       	call   0x140001c73
   1400013a3:	85 c0                	test   eax,eax
   1400013a5:	75 10                	jne    0x1400013b7
   1400013a7:	48 8d 0d 32 1d 00 00 	lea    rcx,[rip+0x1d32]        # 0x1400030e0
   1400013ae:	e8 c0 08 00 00       	call   0x140001c73
   1400013b3:	85 c0                	test   eax,eax
   1400013b5:	74 2e                	je     0x1400013e5
   1400013b7:	32 c0                	xor    al,al
   1400013b9:	eb 33                	jmp    0x1400013ee
   1400013bb:	66 0f 6f 05 6d 0e 00 	movdqa xmm0,XMMWORD PTR [rip+0xe6d]        # 0x140002230
   1400013c2:	00 
   1400013c3:	48 83 c8 ff          	or     rax,0xffffffffffffffff
   1400013c7:	f3 0f 7f 05 f9 1c 00 	movdqu XMMWORD PTR [rip+0x1cf9],xmm0        # 0x1400030c8
   1400013ce:	00 
   1400013cf:	48 89 05 02 1d 00 00 	mov    QWORD PTR [rip+0x1d02],rax        # 0x1400030d8
   1400013d6:	f3 0f 7f 05 02 1d 00 	movdqu XMMWORD PTR [rip+0x1d02],xmm0        # 0x1400030e0
   1400013dd:	00 
   1400013de:	48 89 05 0b 1d 00 00 	mov    QWORD PTR [rip+0x1d0b],rax        # 0x1400030f0
   1400013e5:	c6 05 d5 1c 00 00 01 	mov    BYTE PTR [rip+0x1cd5],0x1        # 0x1400030c1
   1400013ec:	b0 01                	mov    al,0x1
   1400013ee:	48 83 c4 20          	add    rsp,0x20
   1400013f2:	5b                   	pop    rbx
   1400013f3:	c3                   	ret
   1400013f4:	b9 05 00 00 00       	mov    ecx,0x5
   1400013f9:	e8 56 02 00 00       	call   0x140001654
   1400013fe:	cc                   	int3
   1400013ff:	cc                   	int3
   140001400:	48 83 ec 18          	sub    rsp,0x18
   140001404:	4c 8b c1             	mov    r8,rcx
   140001407:	b8 4d 5a 00 00       	mov    eax,0x5a4d
   14000140c:	66 39 05 ed eb ff ff 	cmp    WORD PTR [rip+0xffffffffffffebed],ax        # 0x140000000
   140001413:	75 78                	jne    0x14000148d
   140001415:	48 63 0d 20 ec ff ff 	movsxd rcx,DWORD PTR [rip+0xffffffffffffec20]        # 0x14000003c
   14000141c:	48 8d 15 dd eb ff ff 	lea    rdx,[rip+0xffffffffffffebdd]        # 0x140000000
   140001423:	48 03 ca             	add    rcx,rdx
   140001426:	81 39 50 45 00 00    	cmp    DWORD PTR [rcx],0x4550
   14000142c:	75 5f                	jne    0x14000148d
   14000142e:	b8 0b 02 00 00       	mov    eax,0x20b
   140001433:	66 39 41 18          	cmp    WORD PTR [rcx+0x18],ax
   140001437:	75 54                	jne    0x14000148d
   140001439:	4c 2b c2             	sub    r8,rdx
   14000143c:	0f b7 51 14          	movzx  edx,WORD PTR [rcx+0x14]
   140001440:	48 83 c2 18          	add    rdx,0x18
   140001444:	48 03 d1             	add    rdx,rcx
   140001447:	0f b7 41 06          	movzx  eax,WORD PTR [rcx+0x6]
   14000144b:	48 8d 0c 80          	lea    rcx,[rax+rax*4]
   14000144f:	4c 8d 0c ca          	lea    r9,[rdx+rcx*8]
   140001453:	48 89 14 24          	mov    QWORD PTR [rsp],rdx
   140001457:	49 3b d1             	cmp    rdx,r9
   14000145a:	74 18                	je     0x140001474
   14000145c:	8b 4a 0c             	mov    ecx,DWORD PTR [rdx+0xc]
   14000145f:	4c 3b c1             	cmp    r8,rcx
   140001462:	72 0a                	jb     0x14000146e
   140001464:	8b 42 08             	mov    eax,DWORD PTR [rdx+0x8]
   140001467:	03 c1                	add    eax,ecx
   140001469:	4c 3b c0             	cmp    r8,rax
   14000146c:	72 08                	jb     0x140001476
   14000146e:	48 83 c2 28          	add    rdx,0x28
   140001472:	eb df                	jmp    0x140001453
   140001474:	33 d2                	xor    edx,edx
   140001476:	48 85 d2             	test   rdx,rdx
   140001479:	75 04                	jne    0x14000147f
   14000147b:	32 c0                	xor    al,al
   14000147d:	eb 14                	jmp    0x140001493
   14000147f:	83 7a 24 00          	cmp    DWORD PTR [rdx+0x24],0x0
   140001483:	7d 04                	jge    0x140001489
   140001485:	32 c0                	xor    al,al
   140001487:	eb 0a                	jmp    0x140001493
   140001489:	b0 01                	mov    al,0x1
   14000148b:	eb 06                	jmp    0x140001493
   14000148d:	32 c0                	xor    al,al
   14000148f:	eb 02                	jmp    0x140001493
   140001491:	32 c0                	xor    al,al
   140001493:	48 83 c4 18          	add    rsp,0x18
   140001497:	c3                   	ret
   140001498:	40 53                	rex push rbx
   14000149a:	48 83 ec 20          	sub    rsp,0x20
   14000149e:	8a d9                	mov    bl,cl
   1400014a0:	e8 03 07 00 00       	call   0x140001ba8
   1400014a5:	33 d2                	xor    edx,edx
   1400014a7:	85 c0                	test   eax,eax
   1400014a9:	74 0b                	je     0x1400014b6
   1400014ab:	84 db                	test   bl,bl
   1400014ad:	75 07                	jne    0x1400014b6
   1400014af:	48 87 15 02 1c 00 00 	xchg   QWORD PTR [rip+0x1c02],rdx        # 0x1400030b8
   1400014b6:	48 83 c4 20          	add    rsp,0x20
   1400014ba:	5b                   	pop    rbx
   1400014bb:	c3                   	ret
   1400014bc:	40 53                	rex push rbx
   1400014be:	48 83 ec 20          	sub    rsp,0x20
   1400014c2:	80 3d f7 1b 00 00 00 	cmp    BYTE PTR [rip+0x1bf7],0x0        # 0x1400030c0
   1400014c9:	8a d9                	mov    bl,cl
   1400014cb:	74 04                	je     0x1400014d1
   1400014cd:	84 d2                	test   dl,dl
   1400014cf:	75 0c                	jne    0x1400014dd
   1400014d1:	e8 36 01 00 00       	call   0x14000160c
   1400014d6:	8a cb                	mov    cl,bl
   1400014d8:	e8 2f 01 00 00       	call   0x14000160c
   1400014dd:	b0 01                	mov    al,0x1
   1400014df:	48 83 c4 20          	add    rsp,0x20
   1400014e3:	5b                   	pop    rbx
   1400014e4:	c3                   	ret
   1400014e5:	cc                   	int3
   1400014e6:	cc                   	int3
   1400014e7:	cc                   	int3
   1400014e8:	40 53                	rex push rbx
   1400014ea:	48 83 ec 20          	sub    rsp,0x20
   1400014ee:	48 83 3d d2 1b 00 00 	cmp    QWORD PTR [rip+0x1bd2],0xffffffffffffffff        # 0x1400030c8
   1400014f5:	ff 
   1400014f6:	48 8b d9             	mov    rbx,rcx
   1400014f9:	75 07                	jne    0x140001502
   1400014fb:	e8 7f 07 00 00       	call   0x140001c7f
   140001500:	eb 0f                	jmp    0x140001511
   140001502:	48 8b d3             	mov    rdx,rbx
   140001505:	48 8d 0d bc 1b 00 00 	lea    rcx,[rip+0x1bbc]        # 0x1400030c8
   14000150c:	e8 68 07 00 00       	call   0x140001c79
   140001511:	33 d2                	xor    edx,edx
   140001513:	85 c0                	test   eax,eax
   140001515:	48 0f 44 d3          	cmove  rdx,rbx
   140001519:	48 8b c2             	mov    rax,rdx
   14000151c:	48 83 c4 20          	add    rsp,0x20
   140001520:	5b                   	pop    rbx
   140001521:	c3                   	ret
   140001522:	cc                   	int3
   140001523:	cc                   	int3
   140001524:	48 83 ec 28          	sub    rsp,0x28
   140001528:	e8 bb ff ff ff       	call   0x1400014e8
   14000152d:	48 f7 d8             	neg    rax
   140001530:	1b c0                	sbb    eax,eax
   140001532:	f7 d8                	neg    eax
   140001534:	ff c8                	dec    eax
   140001536:	48 83 c4 28          	add    rsp,0x28
   14000153a:	c3                   	ret
   14000153b:	cc                   	int3
   14000153c:	48 89 5c 24 18       	mov    QWORD PTR [rsp+0x18],rbx
   140001541:	55                   	push   rbp
   140001542:	48 8b ec             	mov    rbp,rsp
   140001545:	48 83 ec 30          	sub    rsp,0x30
   140001549:	48 8b 05 f0 1a 00 00 	mov    rax,QWORD PTR [rip+0x1af0]        # 0x140003040
   140001550:	48 bb 32 a2 df 2d 99 	movabs rbx,0x2b992ddfa232
   140001557:	2b 00 00 
   14000155a:	48 3b c3             	cmp    rax,rbx
   14000155d:	75 74                	jne    0x1400015d3
   14000155f:	48 83 65 10 00       	and    QWORD PTR [rbp+0x10],0x0
   140001564:	48 8d 4d 10          	lea    rcx,[rbp+0x10]
   140001568:	ff 15 aa 0a 00 00    	call   QWORD PTR [rip+0xaaa]        # 0x140002018
   14000156e:	48 8b 45 10          	mov    rax,QWORD PTR [rbp+0x10]
   140001572:	48 89 45 f0          	mov    QWORD PTR [rbp-0x10],rax
   140001576:	ff 15 94 0a 00 00    	call   QWORD PTR [rip+0xa94]        # 0x140002010
   14000157c:	8b c0                	mov    eax,eax
   14000157e:	48 31 45 f0          	xor    QWORD PTR [rbp-0x10],rax
   140001582:	ff 15 80 0a 00 00    	call   QWORD PTR [rip+0xa80]        # 0x140002008
   140001588:	8b c0                	mov    eax,eax
   14000158a:	48 8d 4d 18          	lea    rcx,[rbp+0x18]
   14000158e:	48 31 45 f0          	xor    QWORD PTR [rbp-0x10],rax
   140001592:	ff 15 d0 0a 00 00    	call   QWORD PTR [rip+0xad0]        # 0x140002068
   140001598:	8b 45 18             	mov    eax,DWORD PTR [rbp+0x18]
   14000159b:	48 8d 4d f0          	lea    rcx,[rbp-0x10]
   14000159f:	48 c1 e0 20          	shl    rax,0x20
   1400015a3:	48 33 45 18          	xor    rax,QWORD PTR [rbp+0x18]
   1400015a7:	48 33 45 f0          	xor    rax,QWORD PTR [rbp-0x10]
   1400015ab:	48 33 c1             	xor    rax,rcx
   1400015ae:	48 b9 ff ff ff ff ff 	movabs rcx,0xffffffffffff
   1400015b5:	ff 00 00 
   1400015b8:	48 23 c1             	and    rax,rcx
   1400015bb:	48 b9 33 a2 df 2d 99 	movabs rcx,0x2b992ddfa233
   1400015c2:	2b 00 00 
   1400015c5:	48 3b c3             	cmp    rax,rbx
   1400015c8:	48 0f 44 c1          	cmove  rax,rcx
   1400015cc:	48 89 05 6d 1a 00 00 	mov    QWORD PTR [rip+0x1a6d],rax        # 0x140003040
   1400015d3:	48 8b 5c 24 50       	mov    rbx,QWORD PTR [rsp+0x50]
   1400015d8:	48 f7 d0             	not    rax
   1400015db:	48 89 05 9e 1a 00 00 	mov    QWORD PTR [rip+0x1a9e],rax        # 0x140003080
   1400015e2:	48 83 c4 30          	add    rsp,0x30
   1400015e6:	5d                   	pop    rbp
   1400015e7:	c3                   	ret
   1400015e8:	33 c0                	xor    eax,eax
   1400015ea:	c3                   	ret
   1400015eb:	cc                   	int3
   1400015ec:	b8 01 00 00 00       	mov    eax,0x1
   1400015f1:	c3                   	ret
   1400015f2:	cc                   	int3
   1400015f3:	cc                   	int3
   1400015f4:	b8 00 40 00 00       	mov    eax,0x4000
   1400015f9:	c3                   	ret
   1400015fa:	cc                   	int3
   1400015fb:	cc                   	int3
   1400015fc:	48 8d 0d fd 1a 00 00 	lea    rcx,[rip+0x1afd]        # 0x140003100
   140001603:	48 ff 25 16 0a 00 00 	rex.W jmp QWORD PTR [rip+0xa16]        # 0x140002020
   14000160a:	cc                   	int3
   14000160b:	cc                   	int3
   14000160c:	b0 01                	mov    al,0x1
   14000160e:	c3                   	ret
   14000160f:	cc                   	int3
   140001610:	c2 00 00             	ret    0x0
   140001613:	cc                   	int3
   140001614:	48 83 ec 28          	sub    rsp,0x28
   140001618:	e8 5b fa ff ff       	call   0x140001078
   14000161d:	48 83 08 24          	or     QWORD PTR [rax],0x24
   140001621:	e8 5a fa ff ff       	call   0x140001080
   140001626:	48 83 08 02          	or     QWORD PTR [rax],0x2
   14000162a:	48 83 c4 28          	add    rsp,0x28
   14000162e:	c3                   	ret
   14000162f:	cc                   	int3
   140001630:	33 c0                	xor    eax,eax
   140001632:	39 05 dc 19 00 00    	cmp    DWORD PTR [rip+0x19dc],eax        # 0x140003014
   140001638:	0f 94 c0             	sete   al
   14000163b:	c3                   	ret
   14000163c:	48 8d 05 e5 1a 00 00 	lea    rax,[rip+0x1ae5]        # 0x140003128
   140001643:	c3                   	ret
   140001644:	48 8d 05 d5 1a 00 00 	lea    rax,[rip+0x1ad5]        # 0x140003120
   14000164b:	c3                   	ret
   14000164c:	83 25 bd 1a 00 00 00 	and    DWORD PTR [rip+0x1abd],0x0        # 0x140003110
   140001653:	c3                   	ret
   140001654:	48 89 5c 24 08       	mov    QWORD PTR [rsp+0x8],rbx
   140001659:	55                   	push   rbp
   14000165a:	48 8d ac 24 40 fb ff 	lea    rbp,[rsp-0x4c0]
   140001661:	ff 
   140001662:	48 81 ec c0 05 00 00 	sub    rsp,0x5c0
   140001669:	8b d9                	mov    ebx,ecx
   14000166b:	b9 17 00 00 00       	mov    ecx,0x17
   140001670:	ff 15 ca 09 00 00    	call   QWORD PTR [rip+0x9ca]        # 0x140002040
   140001676:	85 c0                	test   eax,eax
   140001678:	74 04                	je     0x14000167e
   14000167a:	8b cb                	mov    ecx,ebx
   14000167c:	cd 29                	int    0x29
   14000167e:	b9 03 00 00 00       	mov    ecx,0x3
   140001683:	e8 c4 ff ff ff       	call   0x14000164c
   140001688:	33 d2                	xor    edx,edx
   14000168a:	48 8d 4d f0          	lea    rcx,[rbp-0x10]
   14000168e:	41 b8 d0 04 00 00    	mov    r8d,0x4d0
   140001694:	e8 56 05 00 00       	call   0x140001bef
   140001699:	48 8d 4d f0          	lea    rcx,[rbp-0x10]
   14000169d:	ff 15 85 09 00 00    	call   QWORD PTR [rip+0x985]        # 0x140002028
   1400016a3:	48 8b 9d e8 00 00 00 	mov    rbx,QWORD PTR [rbp+0xe8]
   1400016aa:	48 8d 95 d8 04 00 00 	lea    rdx,[rbp+0x4d8]
   1400016b1:	48 8b cb             	mov    rcx,rbx
   1400016b4:	45 33 c0             	xor    r8d,r8d
   1400016b7:	ff 15 73 09 00 00    	call   QWORD PTR [rip+0x973]        # 0x140002030
   1400016bd:	48 85 c0             	test   rax,rax
   1400016c0:	74 3c                	je     0x1400016fe
   1400016c2:	48 83 64 24 38 00    	and    QWORD PTR [rsp+0x38],0x0
   1400016c8:	48 8d 8d e0 04 00 00 	lea    rcx,[rbp+0x4e0]
   1400016cf:	48 8b 95 d8 04 00 00 	mov    rdx,QWORD PTR [rbp+0x4d8]
   1400016d6:	4c 8b c8             	mov    r9,rax
   1400016d9:	48 89 4c 24 30       	mov    QWORD PTR [rsp+0x30],rcx
   1400016de:	4c 8b c3             	mov    r8,rbx
   1400016e1:	48 8d 8d e8 04 00 00 	lea    rcx,[rbp+0x4e8]
   1400016e8:	48 89 4c 24 28       	mov    QWORD PTR [rsp+0x28],rcx
   1400016ed:	48 8d 4d f0          	lea    rcx,[rbp-0x10]
   1400016f1:	48 89 4c 24 20       	mov    QWORD PTR [rsp+0x20],rcx
   1400016f6:	33 c9                	xor    ecx,ecx
   1400016f8:	ff 15 62 09 00 00    	call   QWORD PTR [rip+0x962]        # 0x140002060
   1400016fe:	48 8b 85 c8 04 00 00 	mov    rax,QWORD PTR [rbp+0x4c8]
   140001705:	48 8d 4c 24 50       	lea    rcx,[rsp+0x50]
   14000170a:	48 89 85 e8 00 00 00 	mov    QWORD PTR [rbp+0xe8],rax
   140001711:	33 d2                	xor    edx,edx
   140001713:	48 8d 85 c8 04 00 00 	lea    rax,[rbp+0x4c8]
   14000171a:	41 b8 98 00 00 00    	mov    r8d,0x98
   140001720:	48 83 c0 08          	add    rax,0x8
   140001724:	48 89 85 88 00 00 00 	mov    QWORD PTR [rbp+0x88],rax
   14000172b:	e8 bf 04 00 00       	call   0x140001bef
   140001730:	48 8b 85 c8 04 00 00 	mov    rax,QWORD PTR [rbp+0x4c8]
   140001737:	48 89 44 24 60       	mov    QWORD PTR [rsp+0x60],rax
   14000173c:	c7 44 24 50 15 00 00 	mov    DWORD PTR [rsp+0x50],0x40000015
   140001743:	40 
   140001744:	c7 44 24 54 01 00 00 	mov    DWORD PTR [rsp+0x54],0x1
   14000174b:	00 
   14000174c:	ff 15 06 09 00 00    	call   QWORD PTR [rip+0x906]        # 0x140002058
   140001752:	8b d8                	mov    ebx,eax
   140001754:	33 c9                	xor    ecx,ecx
   140001756:	48 8d 44 24 50       	lea    rax,[rsp+0x50]
   14000175b:	48 89 44 24 40       	mov    QWORD PTR [rsp+0x40],rax
   140001760:	48 8d 45 f0          	lea    rax,[rbp-0x10]
   140001764:	48 89 44 24 48       	mov    QWORD PTR [rsp+0x48],rax
   140001769:	ff 15 d9 08 00 00    	call   QWORD PTR [rip+0x8d9]        # 0x140002048
   14000176f:	48 8d 4c 24 40       	lea    rcx,[rsp+0x40]
   140001774:	ff 15 d6 08 00 00    	call   QWORD PTR [rip+0x8d6]        # 0x140002050
   14000177a:	85 c0                	test   eax,eax
   14000177c:	75 0d                	jne    0x14000178b
   14000177e:	83 fb 01             	cmp    ebx,0x1
   140001781:	74 08                	je     0x14000178b
   140001783:	8d 48 03             	lea    ecx,[rax+0x3]
   140001786:	e8 c1 fe ff ff       	call   0x14000164c
   14000178b:	48 8b 9c 24 d0 05 00 	mov    rbx,QWORD PTR [rsp+0x5d0]
   140001792:	00 
   140001793:	48 81 c4 c0 05 00 00 	add    rsp,0x5c0
   14000179a:	5d                   	pop    rbp
   14000179b:	c3                   	ret
   14000179c:	e9 47 fe ff ff       	jmp    0x1400015e8
   1400017a1:	cc                   	int3
   1400017a2:	cc                   	int3
   1400017a3:	cc                   	int3
   1400017a4:	48 83 ec 28          	sub    rsp,0x28
   1400017a8:	33 c9                	xor    ecx,ecx
   1400017aa:	ff 15 88 08 00 00    	call   QWORD PTR [rip+0x888]        # 0x140002038
   1400017b0:	48 85 c0             	test   rax,rax
   1400017b3:	74 39                	je     0x1400017ee
   1400017b5:	b9 4d 5a 00 00       	mov    ecx,0x5a4d
   1400017ba:	66 39 08             	cmp    WORD PTR [rax],cx
   1400017bd:	75 2f                	jne    0x1400017ee
   1400017bf:	48 63 48 3c          	movsxd rcx,DWORD PTR [rax+0x3c]
   1400017c3:	48 03 c8             	add    rcx,rax
   1400017c6:	81 39 50 45 00 00    	cmp    DWORD PTR [rcx],0x4550
   1400017cc:	75 20                	jne    0x1400017ee
   1400017ce:	b8 0b 02 00 00       	mov    eax,0x20b
   1400017d3:	66 39 41 18          	cmp    WORD PTR [rcx+0x18],ax
   1400017d7:	75 15                	jne    0x1400017ee
   1400017d9:	83 b9 84 00 00 00 0e 	cmp    DWORD PTR [rcx+0x84],0xe
   1400017e0:	76 0c                	jbe    0x1400017ee
   1400017e2:	83 b9 f8 00 00 00 00 	cmp    DWORD PTR [rcx+0xf8],0x0
   1400017e9:	0f 95 c0             	setne  al
   1400017ec:	eb 02                	jmp    0x1400017f0
   1400017ee:	32 c0                	xor    al,al
   1400017f0:	48 83 c4 28          	add    rsp,0x28
   1400017f4:	c3                   	ret
   1400017f5:	cc                   	int3
   1400017f6:	cc                   	int3
   1400017f7:	cc                   	int3
   1400017f8:	48 8d 0d 09 00 00 00 	lea    rcx,[rip+0x9]        # 0x140001808
   1400017ff:	48 ff 25 42 08 00 00 	rex.W jmp QWORD PTR [rip+0x842]        # 0x140002048
   140001806:	cc                   	int3
   140001807:	cc                   	int3
   140001808:	48 89 5c 24 08       	mov    QWORD PTR [rsp+0x8],rbx
   14000180d:	57                   	push   rdi
   14000180e:	48 83 ec 20          	sub    rsp,0x20
   140001812:	48 8b 19             	mov    rbx,QWORD PTR [rcx]
   140001815:	48 8b f9             	mov    rdi,rcx
   140001818:	81 3b 63 73 6d e0    	cmp    DWORD PTR [rbx],0xe06d7363
   14000181e:	75 1c                	jne    0x14000183c
   140001820:	83 7b 18 04          	cmp    DWORD PTR [rbx+0x18],0x4
   140001824:	75 16                	jne    0x14000183c
   140001826:	8b 53 20             	mov    edx,DWORD PTR [rbx+0x20]
   140001829:	8d 82 e0 fa 6c e6    	lea    eax,[rdx-0x19930520]
   14000182f:	83 f8 02             	cmp    eax,0x2
   140001832:	76 15                	jbe    0x140001849
   140001834:	81 fa 00 40 99 01    	cmp    edx,0x1994000
   14000183a:	74 0d                	je     0x140001849
   14000183c:	48 8b 5c 24 30       	mov    rbx,QWORD PTR [rsp+0x30]
   140001841:	33 c0                	xor    eax,eax
   140001843:	48 83 c4 20          	add    rsp,0x20
   140001847:	5f                   	pop    rdi
   140001848:	c3                   	ret
   140001849:	e8 95 03 00 00       	call   0x140001be3
   14000184e:	48 89 18             	mov    QWORD PTR [rax],rbx
   140001851:	48 8b 5f 08          	mov    rbx,QWORD PTR [rdi+0x8]
   140001855:	e8 8f 03 00 00       	call   0x140001be9
   14000185a:	48 89 18             	mov    QWORD PTR [rax],rbx
   14000185d:	e8 23 04 00 00       	call   0x140001c85
   140001862:	cc                   	int3
   140001863:	cc                   	int3
   140001864:	48 89 5c 24 08       	mov    QWORD PTR [rsp+0x8],rbx
   140001869:	57                   	push   rdi
   14000186a:	48 83 ec 20          	sub    rsp,0x20
   14000186e:	48 8d 1d 63 0e 00 00 	lea    rbx,[rip+0xe63]        # 0x1400026d8
   140001875:	48 8d 3d 5c 0e 00 00 	lea    rdi,[rip+0xe5c]        # 0x1400026d8
   14000187c:	eb 12                	jmp    0x140001890
   14000187e:	48 8b 03             	mov    rax,QWORD PTR [rbx]
   140001881:	48 85 c0             	test   rax,rax
   140001884:	74 06                	je     0x14000188c
   140001886:	ff 15 1c 09 00 00    	call   QWORD PTR [rip+0x91c]        # 0x1400021a8
   14000188c:	48 83 c3 08          	add    rbx,0x8
   140001890:	48 3b df             	cmp    rbx,rdi
   140001893:	72 e9                	jb     0x14000187e
   140001895:	48 8b 5c 24 30       	mov    rbx,QWORD PTR [rsp+0x30]
   14000189a:	48 83 c4 20          	add    rsp,0x20
   14000189e:	5f                   	pop    rdi
   14000189f:	c3                   	ret
   1400018a0:	48 89 5c 24 08       	mov    QWORD PTR [rsp+0x8],rbx
   1400018a5:	57                   	push   rdi
   1400018a6:	48 83 ec 20          	sub    rsp,0x20
   1400018aa:	48 8d 1d 37 0e 00 00 	lea    rbx,[rip+0xe37]        # 0x1400026e8
   1400018b1:	48 8d 3d 30 0e 00 00 	lea    rdi,[rip+0xe30]        # 0x1400026e8
   1400018b8:	eb 12                	jmp    0x1400018cc
   1400018ba:	48 8b 03             	mov    rax,QWORD PTR [rbx]
   1400018bd:	48 85 c0             	test   rax,rax
   1400018c0:	74 06                	je     0x1400018c8
   1400018c2:	ff 15 e0 08 00 00    	call   QWORD PTR [rip+0x8e0]        # 0x1400021a8
   1400018c8:	48 83 c3 08          	add    rbx,0x8
   1400018cc:	48 3b df             	cmp    rbx,rdi
   1400018cf:	72 e9                	jb     0x1400018ba
   1400018d1:	48 8b 5c 24 30       	mov    rbx,QWORD PTR [rsp+0x30]
   1400018d6:	48 83 c4 20          	add    rsp,0x20
   1400018da:	5f                   	pop    rdi
   1400018db:	c3                   	ret
   1400018dc:	48 89 5c 24 10       	mov    QWORD PTR [rsp+0x10],rbx
   1400018e1:	48 89 74 24 18       	mov    QWORD PTR [rsp+0x18],rsi
   1400018e6:	55                   	push   rbp
   1400018e7:	57                   	push   rdi
   1400018e8:	41 56                	push   r14
   1400018ea:	48 8b ec             	mov    rbp,rsp
   1400018ed:	48 83 ec 10          	sub    rsp,0x10
   1400018f1:	33 c0                	xor    eax,eax
   1400018f3:	33 c9                	xor    ecx,ecx
   1400018f5:	0f a2                	cpuid
   1400018f7:	44 8b c1             	mov    r8d,ecx
   1400018fa:	44 8b d2             	mov    r10d,edx
   1400018fd:	41 81 f2 69 6e 65 49 	xor    r10d,0x49656e69
   140001904:	41 81 f0 6e 74 65 6c 	xor    r8d,0x6c65746e
   14000190b:	44 8b cb             	mov    r9d,ebx
   14000190e:	44 8b f0             	mov    r14d,eax
   140001911:	33 c9                	xor    ecx,ecx
   140001913:	b8 01 00 00 00       	mov    eax,0x1
   140001918:	0f a2                	cpuid
   14000191a:	45 0b d0             	or     r10d,r8d
   14000191d:	89 45 f0             	mov    DWORD PTR [rbp-0x10],eax
   140001920:	41 81 f1 47 65 6e 75 	xor    r9d,0x756e6547
   140001927:	89 5d f4             	mov    DWORD PTR [rbp-0xc],ebx
   14000192a:	45 0b d1             	or     r10d,r9d
   14000192d:	89 4d f8             	mov    DWORD PTR [rbp-0x8],ecx
   140001930:	8b f9                	mov    edi,ecx
   140001932:	89 55 fc             	mov    DWORD PTR [rbp-0x4],edx
   140001935:	75 5b                	jne    0x140001992
   140001937:	48 83 0d f1 16 00 00 	or     QWORD PTR [rip+0x16f1],0xffffffffffffffff        # 0x140003030
   14000193e:	ff 
   14000193f:	25 f0 3f ff 0f       	and    eax,0xfff3ff0
   140001944:	48 c7 05 d9 16 00 00 	mov    QWORD PTR [rip+0x16d9],0x8000        # 0x140003028
   14000194b:	00 80 00 00 
   14000194f:	3d c0 06 01 00       	cmp    eax,0x106c0
   140001954:	74 28                	je     0x14000197e
   140001956:	3d 60 06 02 00       	cmp    eax,0x20660
   14000195b:	74 21                	je     0x14000197e
   14000195d:	3d 70 06 02 00       	cmp    eax,0x20670
   140001962:	74 1a                	je     0x14000197e
   140001964:	05 b0 f9 fc ff       	add    eax,0xfffcf9b0
   140001969:	83 f8 20             	cmp    eax,0x20
   14000196c:	77 24                	ja     0x140001992
   14000196e:	48 b9 01 00 01 00 01 	movabs rcx,0x100010001
   140001975:	00 00 00 
   140001978:	48 0f a3 c1          	bt     rcx,rax
   14000197c:	73 14                	jae    0x140001992
   14000197e:	44 8b 05 93 17 00 00 	mov    r8d,DWORD PTR [rip+0x1793]        # 0x140003118
   140001985:	41 83 c8 01          	or     r8d,0x1
   140001989:	44 89 05 88 17 00 00 	mov    DWORD PTR [rip+0x1788],r8d        # 0x140003118
   140001990:	eb 07                	jmp    0x140001999
   140001992:	44 8b 05 7f 17 00 00 	mov    r8d,DWORD PTR [rip+0x177f]        # 0x140003118
   140001999:	45 33 c9             	xor    r9d,r9d
   14000199c:	41 8b f1             	mov    esi,r9d
   14000199f:	45 8b d9             	mov    r11d,r9d
   1400019a2:	45 8b d1             	mov    r10d,r9d
   1400019a5:	41 83 fe 07          	cmp    r14d,0x7
   1400019a9:	7c 65                	jl     0x140001a10
   1400019ab:	41 8d 41 07          	lea    eax,[r9+0x7]
   1400019af:	33 c9                	xor    ecx,ecx
   1400019b1:	0f a2                	cpuid
   1400019b3:	89 45 f0             	mov    DWORD PTR [rbp-0x10],eax
   1400019b6:	8b f2                	mov    esi,edx
   1400019b8:	89 5d f4             	mov    DWORD PTR [rbp-0xc],ebx
   1400019bb:	44 8b cb             	mov    r9d,ebx
   1400019be:	89 4d f8             	mov    DWORD PTR [rbp-0x8],ecx
   1400019c1:	89 55 fc             	mov    DWORD PTR [rbp-0x4],edx
   1400019c4:	0f ba e3 09          	bt     ebx,0x9
   1400019c8:	73 0b                	jae    0x1400019d5
   1400019ca:	41 83 c8 02          	or     r8d,0x2
   1400019ce:	44 89 05 43 17 00 00 	mov    DWORD PTR [rip+0x1743],r8d        # 0x140003118
   1400019d5:	83 f8 01             	cmp    eax,0x1
   1400019d8:	7c 19                	jl     0x1400019f3
   1400019da:	b8 07 00 00 00       	mov    eax,0x7
   1400019df:	8d 48 fa             	lea    ecx,[rax-0x6]
   1400019e2:	0f a2                	cpuid
   1400019e4:	44 8b da             	mov    r11d,edx
   1400019e7:	89 45 f0             	mov    DWORD PTR [rbp-0x10],eax
   1400019ea:	89 5d f4             	mov    DWORD PTR [rbp-0xc],ebx
   1400019ed:	89 4d f8             	mov    DWORD PTR [rbp-0x8],ecx
   1400019f0:	89 55 fc             	mov    DWORD PTR [rbp-0x4],edx
   1400019f3:	b8 24 00 00 00       	mov    eax,0x24
   1400019f8:	44 3b f0             	cmp    r14d,eax
   1400019fb:	7c 13                	jl     0x140001a10
   1400019fd:	33 c9                	xor    ecx,ecx
   1400019ff:	0f a2                	cpuid
   140001a01:	44 8b d3             	mov    r10d,ebx
   140001a04:	89 45 f0             	mov    DWORD PTR [rbp-0x10],eax
   140001a07:	89 5d f4             	mov    DWORD PTR [rbp-0xc],ebx
   140001a0a:	89 4d f8             	mov    DWORD PTR [rbp-0x8],ecx
   140001a0d:	89 55 fc             	mov    DWORD PTR [rbp-0x4],edx
   140001a10:	48 8b 05 01 16 00 00 	mov    rax,QWORD PTR [rip+0x1601]        # 0x140003018
   140001a17:	bb 06 00 00 00       	mov    ebx,0x6
   140001a1c:	48 83 e0 fe          	and    rax,0xfffffffffffffffe
   140001a20:	c7 05 f6 15 00 00 01 	mov    DWORD PTR [rip+0x15f6],0x1        # 0x140003020
   140001a27:	00 00 00 
   140001a2a:	c7 05 f0 15 00 00 02 	mov    DWORD PTR [rip+0x15f0],0x2        # 0x140003024
   140001a31:	00 00 00 
   140001a34:	48 89 05 dd 15 00 00 	mov    QWORD PTR [rip+0x15dd],rax        # 0x140003018
   140001a3b:	0f ba e7 14          	bt     edi,0x14
   140001a3f:	73 1b                	jae    0x140001a5c
   140001a41:	48 83 e0 ef          	and    rax,0xffffffffffffffef
   140001a45:	c7 05 d1 15 00 00 02 	mov    DWORD PTR [rip+0x15d1],0x2        # 0x140003020
   140001a4c:	00 00 00 
   140001a4f:	48 89 05 c2 15 00 00 	mov    QWORD PTR [rip+0x15c2],rax        # 0x140003018
   140001a56:	89 1d c8 15 00 00    	mov    DWORD PTR [rip+0x15c8],ebx        # 0x140003024
   140001a5c:	0f ba e7 1b          	bt     edi,0x1b
   140001a60:	0f 83 2b 01 00 00    	jae    0x140001b91
   140001a66:	33 c9                	xor    ecx,ecx
   140001a68:	0f 01 d0             	xgetbv
   140001a6b:	48 c1 e2 20          	shl    rdx,0x20
   140001a6f:	48 0b d0             	or     rdx,rax
   140001a72:	48 89 55 20          	mov    QWORD PTR [rbp+0x20],rdx
   140001a76:	0f ba e7 1c          	bt     edi,0x1c
   140001a7a:	0f 83 f6 00 00 00    	jae    0x140001b76
   140001a80:	48 8b 45 20          	mov    rax,QWORD PTR [rbp+0x20]
   140001a84:	22 c3                	and    al,bl
   140001a86:	3a c3                	cmp    al,bl
   140001a88:	0f 85 e8 00 00 00    	jne    0x140001b76
   140001a8e:	8b 05 90 15 00 00    	mov    eax,DWORD PTR [rip+0x1590]        # 0x140003024
   140001a94:	b2 e0                	mov    dl,0xe0
   140001a96:	83 c8 08             	or     eax,0x8
   140001a99:	c7 05 7d 15 00 00 03 	mov    DWORD PTR [rip+0x157d],0x3        # 0x140003020
   140001aa0:	00 00 00 
   140001aa3:	89 05 7b 15 00 00    	mov    DWORD PTR [rip+0x157b],eax        # 0x140003024
   140001aa9:	41 f6 c1 20          	test   r9b,0x20
   140001aad:	74 5d                	je     0x140001b0c
   140001aaf:	83 c8 20             	or     eax,0x20
   140001ab2:	c7 05 64 15 00 00 05 	mov    DWORD PTR [rip+0x1564],0x5        # 0x140003020
   140001ab9:	00 00 00 
   140001abc:	89 05 62 15 00 00    	mov    DWORD PTR [rip+0x1562],eax        # 0x140003024
   140001ac2:	b9 00 00 03 d0       	mov    ecx,0xd0030000
   140001ac7:	48 8b 05 4a 15 00 00 	mov    rax,QWORD PTR [rip+0x154a]        # 0x140003018
   140001ace:	44 23 c9             	and    r9d,ecx
   140001ad1:	48 83 e0 fd          	and    rax,0xfffffffffffffffd
   140001ad5:	48 89 05 3c 15 00 00 	mov    QWORD PTR [rip+0x153c],rax        # 0x140003018
   140001adc:	44 3b c9             	cmp    r9d,ecx
   140001adf:	75 32                	jne    0x140001b13
   140001ae1:	48 8b 45 20          	mov    rax,QWORD PTR [rbp+0x20]
   140001ae5:	22 c2                	and    al,dl
   140001ae7:	3a c2                	cmp    al,dl
   140001ae9:	75 21                	jne    0x140001b0c
   140001aeb:	48 8b 05 26 15 00 00 	mov    rax,QWORD PTR [rip+0x1526]        # 0x140003018
   140001af2:	83 0d 2b 15 00 00 40 	or     DWORD PTR [rip+0x152b],0x40        # 0x140003024
   140001af9:	48 83 e0 db          	and    rax,0xffffffffffffffdb
   140001afd:	89 1d 1d 15 00 00    	mov    DWORD PTR [rip+0x151d],ebx        # 0x140003020
   140001b03:	48 89 05 0e 15 00 00 	mov    QWORD PTR [rip+0x150e],rax        # 0x140003018
   140001b0a:	eb 07                	jmp    0x140001b13
   140001b0c:	48 8b 05 05 15 00 00 	mov    rax,QWORD PTR [rip+0x1505]        # 0x140003018
   140001b13:	0f ba e6 17          	bt     esi,0x17
   140001b17:	73 0c                	jae    0x140001b25
   140001b19:	48 0f ba f0 18       	btr    rax,0x18
   140001b1e:	48 89 05 f3 14 00 00 	mov    QWORD PTR [rip+0x14f3],rax        # 0x140003018
   140001b25:	41 0f ba e3 13       	bt     r11d,0x13
   140001b2a:	73 4a                	jae    0x140001b76
   140001b2c:	48 8b 45 20          	mov    rax,QWORD PTR [rbp+0x20]
   140001b30:	22 c2                	and    al,dl
   140001b32:	3a c2                	cmp    al,dl
   140001b34:	75 40                	jne    0x140001b76
   140001b36:	41 8b ca             	mov    ecx,r10d
   140001b39:	41 8b c2             	mov    eax,r10d
   140001b3c:	48 c1 e9 10          	shr    rcx,0x10
   140001b40:	25 ff 00 04 00       	and    eax,0x400ff
   140001b45:	83 e1 07             	and    ecx,0x7
   140001b48:	89 05 c6 15 00 00    	mov    DWORD PTR [rip+0x15c6],eax        # 0x140003114
   140001b4e:	48 81 c9 28 00 00 01 	or     rcx,0x1000028
   140001b55:	48 f7 d1             	not    rcx
   140001b58:	48 23 0d b9 14 00 00 	and    rcx,QWORD PTR [rip+0x14b9]        # 0x140003018
   140001b5f:	48 89 0d b2 14 00 00 	mov    QWORD PTR [rip+0x14b2],rcx        # 0x140003018
   140001b66:	83 f8 01             	cmp    eax,0x1
   140001b69:	76 0b                	jbe    0x140001b76
   140001b6b:	48 83 e1 bf          	and    rcx,0xffffffffffffffbf
   140001b6f:	48 89 0d a2 14 00 00 	mov    QWORD PTR [rip+0x14a2],rcx        # 0x140003018
   140001b76:	41 0f ba e2 15       	bt     r10d,0x15
   140001b7b:	73 14                	jae    0x140001b91
   140001b7d:	48 8b 45 20          	mov    rax,QWORD PTR [rbp+0x20]
   140001b81:	48 0f ba e0 13       	bt     rax,0x13
   140001b86:	73 09                	jae    0x140001b91
   140001b88:	48 0f ba 35 87 14 00 	btr    QWORD PTR [rip+0x1487],0x7        # 0x140003018
   140001b8f:	00 07 
   140001b91:	48 8b 5c 24 38       	mov    rbx,QWORD PTR [rsp+0x38]
   140001b96:	33 c0                	xor    eax,eax
   140001b98:	48 8b 74 24 40       	mov    rsi,QWORD PTR [rsp+0x40]
   140001b9d:	48 83 c4 10          	add    rsp,0x10
   140001ba1:	41 5e                	pop    r14
   140001ba3:	5f                   	pop    rdi
   140001ba4:	5d                   	pop    rbp
   140001ba5:	c3                   	ret
   140001ba6:	cc                   	int3
   140001ba7:	cc                   	int3
   140001ba8:	33 c0                	xor    eax,eax
   140001baa:	39 05 e0 14 00 00    	cmp    DWORD PTR [rip+0x14e0],eax        # 0x140003090
   140001bb0:	0f 95 c0             	setne  al
   140001bb3:	c3                   	ret
   140001bb4:	cc                   	int3
   140001bb5:	cc                   	int3
   140001bb6:	cc                   	int3
   140001bb7:	cc                   	int3
   140001bb8:	cc                   	int3
   140001bb9:	cc                   	int3
   140001bba:	cc                   	int3
   140001bbb:	cc                   	int3
   140001bbc:	cc                   	int3
   140001bbd:	cc                   	int3
   140001bbe:	cc                   	int3
   140001bbf:	cc                   	int3
   140001bc0:	48 83 ec 28          	sub    rsp,0x28
   140001bc4:	e8 af f4 ff ff       	call   0x140001078
   140001bc9:	48 83 08 04          	or     QWORD PTR [rax],0x4
   140001bcd:	e8 ae f4 ff ff       	call   0x140001080
   140001bd2:	48 83 08 02          	or     QWORD PTR [rax],0x2
   140001bd6:	33 c0                	xor    eax,eax
   140001bd8:	48 83 c4 28          	add    rsp,0x28
   140001bdc:	c3                   	ret
   140001bdd:	ff 25 95 04 00 00    	jmp    QWORD PTR [rip+0x495]        # 0x140002078
   140001be3:	ff 25 97 04 00 00    	jmp    QWORD PTR [rip+0x497]        # 0x140002080
   140001be9:	ff 25 99 04 00 00    	jmp    QWORD PTR [rip+0x499]        # 0x140002088
   140001bef:	ff 25 9b 04 00 00    	jmp    QWORD PTR [rip+0x49b]        # 0x140002090
   140001bf5:	ff 25 8d 05 00 00    	jmp    QWORD PTR [rip+0x58d]        # 0x140002188
   140001bfb:	ff 25 7f 05 00 00    	jmp    QWORD PTR [rip+0x57f]        # 0x140002180
   140001c01:	ff 25 f1 04 00 00    	jmp    QWORD PTR [rip+0x4f1]        # 0x1400020f8
   140001c07:	ff 25 e3 04 00 00    	jmp    QWORD PTR [rip+0x4e3]        # 0x1400020f0
   140001c0d:	ff 25 b5 04 00 00    	jmp    QWORD PTR [rip+0x4b5]        # 0x1400020c8
   140001c13:	ff 25 bf 04 00 00    	jmp    QWORD PTR [rip+0x4bf]        # 0x1400020d8
   140001c19:	ff 25 c1 04 00 00    	jmp    QWORD PTR [rip+0x4c1]        # 0x1400020e0
   140001c1f:	ff 25 c3 04 00 00    	jmp    QWORD PTR [rip+0x4c3]        # 0x1400020e8
   140001c25:	ff 25 15 05 00 00    	jmp    QWORD PTR [rip+0x515]        # 0x140002140
   140001c2b:	ff 25 cf 04 00 00    	jmp    QWORD PTR [rip+0x4cf]        # 0x140002100
   140001c31:	ff 25 d1 04 00 00    	jmp    QWORD PTR [rip+0x4d1]        # 0x140002108
   140001c37:	ff 25 1b 05 00 00    	jmp    QWORD PTR [rip+0x51b]        # 0x140002158
   140001c3d:	ff 25 2d 05 00 00    	jmp    QWORD PTR [rip+0x52d]        # 0x140002170
   140001c43:	ff 25 cf 04 00 00    	jmp    QWORD PTR [rip+0x4cf]        # 0x140002118
   140001c49:	ff 25 d1 04 00 00    	jmp    QWORD PTR [rip+0x4d1]        # 0x140002120
   140001c4f:	ff 25 d3 04 00 00    	jmp    QWORD PTR [rip+0x4d3]        # 0x140002128
   140001c55:	ff 25 d5 04 00 00    	jmp    QWORD PTR [rip+0x4d5]        # 0x140002130
   140001c5b:	ff 25 d7 04 00 00    	jmp    QWORD PTR [rip+0x4d7]        # 0x140002138
   140001c61:	ff 25 51 04 00 00    	jmp    QWORD PTR [rip+0x451]        # 0x1400020b8
   140001c67:	ff 25 3b 04 00 00    	jmp    QWORD PTR [rip+0x43b]        # 0x1400020a8
   140001c6d:	ff 25 05 05 00 00    	jmp    QWORD PTR [rip+0x505]        # 0x140002178
   140001c73:	ff 25 cf 04 00 00    	jmp    QWORD PTR [rip+0x4cf]        # 0x140002148
   140001c79:	ff 25 e1 04 00 00    	jmp    QWORD PTR [rip+0x4e1]        # 0x140002160
   140001c7f:	ff 25 cb 04 00 00    	jmp    QWORD PTR [rip+0x4cb]        # 0x140002150
   140001c85:	ff 25 85 04 00 00    	jmp    QWORD PTR [rip+0x485]        # 0x140002110
   140001c8b:	ff 25 07 04 00 00    	jmp    QWORD PTR [rip+0x407]        # 0x140002098
   140001c91:	cc                   	int3
   140001c92:	cc                   	int3
   140001c93:	cc                   	int3
   140001c94:	cc                   	int3
   140001c95:	cc                   	int3
   140001c96:	cc                   	int3
   140001c97:	cc                   	int3
   140001c98:	cc                   	int3
   140001c99:	cc                   	int3
   140001c9a:	cc                   	int3
   140001c9b:	cc                   	int3
   140001c9c:	cc                   	int3
   140001c9d:	cc                   	int3
   140001c9e:	cc                   	int3
   140001c9f:	cc                   	int3
   140001ca0:	cc                   	int3
   140001ca1:	cc                   	int3
   140001ca2:	cc                   	int3
   140001ca3:	cc                   	int3
   140001ca4:	cc                   	int3
   140001ca5:	cc                   	int3
   140001ca6:	66 66 0f 1f 84 00 00 	data16 nop WORD PTR [rax+rax*1+0x0]
   140001cad:	00 00 00 
   140001cb0:	ff e0                	jmp    rax
   140001cb2:	cc                   	int3
   140001cb3:	cc                   	int3
   140001cb4:	cc                   	int3
   140001cb5:	cc                   	int3
   140001cb6:	cc                   	int3
   140001cb7:	cc                   	int3
   140001cb8:	cc                   	int3
   140001cb9:	cc                   	int3
   140001cba:	cc                   	int3
   140001cbb:	cc                   	int3
   140001cbc:	cc                   	int3
   140001cbd:	cc                   	int3
   140001cbe:	cc                   	int3
   140001cbf:	cc                   	int3
   140001cc0:	cc                   	int3
   140001cc1:	cc                   	int3
   140001cc2:	cc                   	int3
   140001cc3:	cc                   	int3
   140001cc4:	cc                   	int3
   140001cc5:	cc                   	int3
   140001cc6:	66 66 0f 1f 84 00 00 	data16 nop WORD PTR [rax+rax*1+0x0]
   140001ccd:	00 00 00 
   140001cd0:	ff 25 d2 04 00 00    	jmp    QWORD PTR [rip+0x4d2]        # 0x1400021a8
   140001cd6:	40 55                	rex push rbp
   140001cd8:	48 83 ec 20          	sub    rsp,0x20
   140001cdc:	48 8b ea             	mov    rbp,rdx
   140001cdf:	48 8b 01             	mov    rax,QWORD PTR [rcx]
   140001ce2:	48 8b d1             	mov    rdx,rcx
   140001ce5:	8b 08                	mov    ecx,DWORD PTR [rax]
   140001ce7:	e8 15 ff ff ff       	call   0x140001c01
   140001cec:	90                   	nop
   140001ced:	48 83 c4 20          	add    rsp,0x20
   140001cf1:	5d                   	pop    rbp
   140001cf2:	c3                   	ret
   140001cf3:	cc                   	int3
   140001cf4:	40 55                	rex push rbp
   140001cf6:	48 8b ea             	mov    rbp,rdx
   140001cf9:	48 8b 01             	mov    rax,QWORD PTR [rcx]
   140001cfc:	33 c9                	xor    ecx,ecx
   140001cfe:	81 38 05 00 00 c0    	cmp    DWORD PTR [rax],0xc0000005
   140001d04:	0f 94 c1             	sete   cl
   140001d07:	8b c1                	mov    eax,ecx
   140001d09:	5d                   	pop    rbp
   140001d0a:	c3                   	ret
   140001d0b:	cc                   	int3
