
passcode:     file format elf32-i386


Disassembly of section .init:

08049000 <_init>:
 8049000:	f3 0f 1e fb          	endbr32
 8049004:	53                   	push   ebx
 8049005:	83 ec 08             	sub    esp,0x8
 8049008:	e8 23 01 00 00       	call   8049130 <__x86.get_pc_thunk.bx>
 804900d:	81 c3 f3 2f 00 00    	add    ebx,0x2ff3
 8049013:	8b 83 f8 ff ff ff    	mov    eax,DWORD PTR [ebx-0x8]
 8049019:	85 c0                	test   eax,eax
 804901b:	74 02                	je     804901f <_init+0x1f>
 804901d:	ff d0                	call   eax
 804901f:	83 c4 08             	add    esp,0x8
 8049022:	5b                   	pop    ebx
 8049023:	c3                   	ret

Disassembly of section .plt:

08049030 <__libc_start_main@plt-0x10>:
 8049030:	ff 35 04 c0 04 08    	push   DWORD PTR ds:0x804c004
 8049036:	ff 25 08 c0 04 08    	jmp    DWORD PTR ds:0x804c008
 804903c:	00 00                	add    BYTE PTR [eax],al
	...

08049040 <__libc_start_main@plt>:
 8049040:	ff 25 0c c0 04 08    	jmp    DWORD PTR ds:0x804c00c
 8049046:	68 00 00 00 00       	push   0x0
 804904b:	e9 e0 ff ff ff       	jmp    8049030 <_init+0x30>

08049050 <printf@plt>:
 8049050:	ff 25 10 c0 04 08    	jmp    DWORD PTR ds:0x804c010
 8049056:	68 08 00 00 00       	push   0x8
 804905b:	e9 d0 ff ff ff       	jmp    8049030 <_init+0x30>

08049060 <fflush@plt>:
 8049060:	ff 25 14 c0 04 08    	jmp    DWORD PTR ds:0x804c014
 8049066:	68 10 00 00 00       	push   0x10
 804906b:	e9 c0 ff ff ff       	jmp    8049030 <_init+0x30>

08049070 <__stack_chk_fail@plt>:
 8049070:	ff 25 18 c0 04 08    	jmp    DWORD PTR ds:0x804c018
 8049076:	68 18 00 00 00       	push   0x18
 804907b:	e9 b0 ff ff ff       	jmp    8049030 <_init+0x30>

08049080 <getegid@plt>:
 8049080:	ff 25 1c c0 04 08    	jmp    DWORD PTR ds:0x804c01c
 8049086:	68 20 00 00 00       	push   0x20
 804908b:	e9 a0 ff ff ff       	jmp    8049030 <_init+0x30>

08049090 <puts@plt>:
 8049090:	ff 25 20 c0 04 08    	jmp    DWORD PTR ds:0x804c020
 8049096:	68 28 00 00 00       	push   0x28
 804909b:	e9 90 ff ff ff       	jmp    8049030 <_init+0x30>

080490a0 <system@plt>:
 80490a0:	ff 25 24 c0 04 08    	jmp    DWORD PTR ds:0x804c024
 80490a6:	68 30 00 00 00       	push   0x30
 80490ab:	e9 80 ff ff ff       	jmp    8049030 <_init+0x30>

080490b0 <exit@plt>:
 80490b0:	ff 25 28 c0 04 08    	jmp    DWORD PTR ds:0x804c028
 80490b6:	68 38 00 00 00       	push   0x38
 80490bb:	e9 70 ff ff ff       	jmp    8049030 <_init+0x30>

080490c0 <setregid@plt>:
 80490c0:	ff 25 2c c0 04 08    	jmp    DWORD PTR ds:0x804c02c
 80490c6:	68 40 00 00 00       	push   0x40
 80490cb:	e9 60 ff ff ff       	jmp    8049030 <_init+0x30>

080490d0 <__isoc99_scanf@plt>:
 80490d0:	ff 25 30 c0 04 08    	jmp    DWORD PTR ds:0x804c030
 80490d6:	68 48 00 00 00       	push   0x48
 80490db:	e9 50 ff ff ff       	jmp    8049030 <_init+0x30>

Disassembly of section .text:

080490e0 <_start>:
 80490e0:	f3 0f 1e fb          	endbr32
 80490e4:	31 ed                	xor    ebp,ebp
 80490e6:	5e                   	pop    esi
 80490e7:	89 e1                	mov    ecx,esp
 80490e9:	83 e4 f0             	and    esp,0xfffffff0
 80490ec:	50                   	push   eax
 80490ed:	54                   	push   esp
 80490ee:	52                   	push   edx
 80490ef:	e8 19 00 00 00       	call   804910d <_start+0x2d>
 80490f4:	81 c3 0c 2f 00 00    	add    ebx,0x2f0c
 80490fa:	6a 00                	push   0x0
 80490fc:	6a 00                	push   0x0
 80490fe:	51                   	push   ecx
 80490ff:	56                   	push   esi
 8049100:	c7 c0 64 93 04 08    	mov    eax,0x8049364
 8049106:	50                   	push   eax
 8049107:	e8 34 ff ff ff       	call   8049040 <__libc_start_main@plt>
 804910c:	f4                   	hlt
 804910d:	8b 1c 24             	mov    ebx,DWORD PTR [esp]
 8049110:	c3                   	ret
 8049111:	66 90                	xchg   ax,ax
 8049113:	66 90                	xchg   ax,ax
 8049115:	66 90                	xchg   ax,ax
 8049117:	66 90                	xchg   ax,ax
 8049119:	66 90                	xchg   ax,ax
 804911b:	66 90                	xchg   ax,ax
 804911d:	66 90                	xchg   ax,ax
 804911f:	90                   	nop

08049120 <_dl_relocate_static_pie>:
 8049120:	f3 0f 1e fb          	endbr32
 8049124:	c3                   	ret
 8049125:	66 90                	xchg   ax,ax
 8049127:	66 90                	xchg   ax,ax
 8049129:	66 90                	xchg   ax,ax
 804912b:	66 90                	xchg   ax,ax
 804912d:	66 90                	xchg   ax,ax
 804912f:	90                   	nop

08049130 <__x86.get_pc_thunk.bx>:
 8049130:	8b 1c 24             	mov    ebx,DWORD PTR [esp]
 8049133:	c3                   	ret
 8049134:	66 90                	xchg   ax,ax
 8049136:	66 90                	xchg   ax,ax
 8049138:	66 90                	xchg   ax,ax
 804913a:	66 90                	xchg   ax,ax
 804913c:	66 90                	xchg   ax,ax
 804913e:	66 90                	xchg   ax,ax

08049140 <deregister_tm_clones>:
 8049140:	b8 3c c0 04 08       	mov    eax,0x804c03c
 8049145:	3d 3c c0 04 08       	cmp    eax,0x804c03c
 804914a:	74 24                	je     8049170 <deregister_tm_clones+0x30>
 804914c:	b8 00 00 00 00       	mov    eax,0x0
 8049151:	85 c0                	test   eax,eax
 8049153:	74 1b                	je     8049170 <deregister_tm_clones+0x30>
 8049155:	55                   	push   ebp
 8049156:	89 e5                	mov    ebp,esp
 8049158:	83 ec 14             	sub    esp,0x14
 804915b:	68 3c c0 04 08       	push   0x804c03c
 8049160:	ff d0                	call   eax
 8049162:	83 c4 10             	add    esp,0x10
 8049165:	c9                   	leave
 8049166:	c3                   	ret
 8049167:	8d b4 26 00 00 00 00 	lea    esi,[esi+eiz*1+0x0]
 804916e:	66 90                	xchg   ax,ax
 8049170:	c3                   	ret
 8049171:	8d b4 26 00 00 00 00 	lea    esi,[esi+eiz*1+0x0]
 8049178:	8d b4 26 00 00 00 00 	lea    esi,[esi+eiz*1+0x0]
 804917f:	90                   	nop

08049180 <register_tm_clones>:
 8049180:	b8 3c c0 04 08       	mov    eax,0x804c03c
 8049185:	2d 3c c0 04 08       	sub    eax,0x804c03c
 804918a:	89 c2                	mov    edx,eax
 804918c:	c1 e8 1f             	shr    eax,0x1f
 804918f:	c1 fa 02             	sar    edx,0x2
 8049192:	01 d0                	add    eax,edx
 8049194:	d1 f8                	sar    eax,1
 8049196:	74 20                	je     80491b8 <register_tm_clones+0x38>
 8049198:	ba 00 00 00 00       	mov    edx,0x0
 804919d:	85 d2                	test   edx,edx
 804919f:	74 17                	je     80491b8 <register_tm_clones+0x38>
 80491a1:	55                   	push   ebp
 80491a2:	89 e5                	mov    ebp,esp
 80491a4:	83 ec 10             	sub    esp,0x10
 80491a7:	50                   	push   eax
 80491a8:	68 3c c0 04 08       	push   0x804c03c
 80491ad:	ff d2                	call   edx
 80491af:	83 c4 10             	add    esp,0x10
 80491b2:	c9                   	leave
 80491b3:	c3                   	ret
 80491b4:	8d 74 26 00          	lea    esi,[esi+eiz*1+0x0]
 80491b8:	c3                   	ret
 80491b9:	8d b4 26 00 00 00 00 	lea    esi,[esi+eiz*1+0x0]

080491c0 <__do_global_dtors_aux>:
 80491c0:	f3 0f 1e fb          	endbr32
 80491c4:	80 3d 3c c0 04 08 00 	cmp    BYTE PTR ds:0x804c03c,0x0
 80491cb:	75 1b                	jne    80491e8 <__do_global_dtors_aux+0x28>
 80491cd:	55                   	push   ebp
 80491ce:	89 e5                	mov    ebp,esp
 80491d0:	83 ec 08             	sub    esp,0x8
 80491d3:	e8 68 ff ff ff       	call   8049140 <deregister_tm_clones>
 80491d8:	c6 05 3c c0 04 08 01 	mov    BYTE PTR ds:0x804c03c,0x1
 80491df:	c9                   	leave
 80491e0:	c3                   	ret
 80491e1:	8d b4 26 00 00 00 00 	lea    esi,[esi+eiz*1+0x0]
 80491e8:	c3                   	ret
 80491e9:	8d b4 26 00 00 00 00 	lea    esi,[esi+eiz*1+0x0]

080491f0 <frame_dummy>:
 80491f0:	f3 0f 1e fb          	endbr32
 80491f4:	eb 8a                	jmp    8049180 <register_tm_clones>

080491f6 <login>:
 80491f6:	55                   	push   ebp
 80491f7:	89 e5                	mov    ebp,esp
 80491f9:	56                   	push   esi
 80491fa:	53                   	push   ebx
 80491fb:	83 ec 10             	sub    esp,0x10
 80491fe:	e8 2d ff ff ff       	call   8049130 <__x86.get_pc_thunk.bx>
 8049203:	81 c3 fd 2d 00 00    	add    ebx,0x2dfd
 8049209:	83 ec 0c             	sub    esp,0xc
 804920c:	8d 83 08 e0 ff ff    	lea    eax,[ebx-0x1ff8]
 8049212:	50                   	push   eax
 8049213:	e8 38 fe ff ff       	call   8049050 <printf@plt>
 8049218:	83 c4 10             	add    esp,0x10
 804921b:	83 ec 08             	sub    esp,0x8
 804921e:	ff 75 f0             	push   DWORD PTR [ebp-0x10]
 8049221:	8d 83 1b e0 ff ff    	lea    eax,[ebx-0x1fe5]
 8049227:	50                   	push   eax
 8049228:	e8 a3 fe ff ff       	call   80490d0 <__isoc99_scanf@plt>
 804922d:	83 c4 10             	add    esp,0x10
 8049230:	8b 83 fc ff ff ff    	mov    eax,DWORD PTR [ebx-0x4]
 8049236:	8b 00                	mov    eax,DWORD PTR [eax]
 8049238:	83 ec 0c             	sub    esp,0xc
 804923b:	50                   	push   eax
 804923c:	e8 1f fe ff ff       	call   8049060 <fflush@plt>
 8049241:	83 c4 10             	add    esp,0x10
 8049244:	83 ec 0c             	sub    esp,0xc
 8049247:	8d 83 1e e0 ff ff    	lea    eax,[ebx-0x1fe2]
 804924d:	50                   	push   eax
 804924e:	e8 fd fd ff ff       	call   8049050 <printf@plt>
 8049253:	83 c4 10             	add    esp,0x10
 8049256:	83 ec 08             	sub    esp,0x8
 8049259:	ff 75 f4             	push   DWORD PTR [ebp-0xc]
 804925c:	8d 83 1b e0 ff ff    	lea    eax,[ebx-0x1fe5]
 8049262:	50                   	push   eax
 8049263:	e8 68 fe ff ff       	call   80490d0 <__isoc99_scanf@plt>
 8049268:	83 c4 10             	add    esp,0x10
 804926b:	83 ec 0c             	sub    esp,0xc
 804926e:	8d 83 31 e0 ff ff    	lea    eax,[ebx-0x1fcf]
 8049274:	50                   	push   eax
 8049275:	e8 16 fe ff ff       	call   8049090 <puts@plt>
 804927a:	83 c4 10             	add    esp,0x10
 804927d:	81 7d f0 40 e2 01 00 	cmp    DWORD PTR [ebp-0x10],0x1e240
 8049284:	75 48                	jne    80492ce <login+0xd8>
 8049286:	81 7d f4 c9 07 cc 00 	cmp    DWORD PTR [ebp-0xc],0xcc07c9
 804928d:	75 3f                	jne    80492ce <login+0xd8>
 804928f:	83 ec 0c             	sub    esp,0xc
 8049292:	8d 83 3d e0 ff ff    	lea    eax,[ebx-0x1fc3]
 8049298:	50                   	push   eax
 8049299:	e8 f2 fd ff ff       	call   8049090 <puts@plt>
 804929e:	83 c4 10             	add    esp,0x10
 80492a1:	e8 da fd ff ff       	call   8049080 <getegid@plt>
 80492a6:	89 c6                	mov    esi,eax
 80492a8:	e8 d3 fd ff ff       	call   8049080 <getegid@plt>
 80492ad:	83 ec 08             	sub    esp,0x8
 80492b0:	56                   	push   esi
 80492b1:	50                   	push   eax
 80492b2:	e8 09 fe ff ff       	call   80490c0 <setregid@plt>
 80492b7:	83 c4 10             	add    esp,0x10
 80492ba:	83 ec 0c             	sub    esp,0xc
 80492bd:	8d 83 47 e0 ff ff    	lea    eax,[ebx-0x1fb9]
 80492c3:	50                   	push   eax
 80492c4:	e8 d7 fd ff ff       	call   80490a0 <system@plt>
 80492c9:	83 c4 10             	add    esp,0x10
 80492cc:	eb 1c                	jmp    80492ea <login+0xf4>
 80492ce:	83 ec 0c             	sub    esp,0xc
 80492d1:	8d 83 55 e0 ff ff    	lea    eax,[ebx-0x1fab]
 80492d7:	50                   	push   eax
 80492d8:	e8 b3 fd ff ff       	call   8049090 <puts@plt>
 80492dd:	83 c4 10             	add    esp,0x10
 80492e0:	83 ec 0c             	sub    esp,0xc
 80492e3:	6a 00                	push   0x0
 80492e5:	e8 c6 fd ff ff       	call   80490b0 <exit@plt>
 80492ea:	90                   	nop
 80492eb:	8d 65 f8             	lea    esp,[ebp-0x8]
 80492ee:	5b                   	pop    ebx
 80492ef:	5e                   	pop    esi
 80492f0:	5d                   	pop    ebp
 80492f1:	c3                   	ret

080492f2 <welcome>:
 80492f2:	55                   	push   ebp
 80492f3:	89 e5                	mov    ebp,esp
 80492f5:	53                   	push   ebx
 80492f6:	83 ec 74             	sub    esp,0x74
 80492f9:	e8 32 fe ff ff       	call   8049130 <__x86.get_pc_thunk.bx>
 80492fe:	81 c3 02 2d 00 00    	add    ebx,0x2d02
 8049304:	65 a1 14 00 00 00    	mov    eax,gs:0x14
 804930a:	89 45 f4             	mov    DWORD PTR [ebp-0xc],eax
 804930d:	31 c0                	xor    eax,eax
 804930f:	83 ec 0c             	sub    esp,0xc
 8049312:	8d 83 63 e0 ff ff    	lea    eax,[ebx-0x1f9d]
 8049318:	50                   	push   eax
 8049319:	e8 32 fd ff ff       	call   8049050 <printf@plt>
 804931e:	83 c4 10             	add    esp,0x10
 8049321:	83 ec 08             	sub    esp,0x8
 8049324:	8d 45 90             	lea    eax,[ebp-0x70]
 8049327:	50                   	push   eax
 8049328:	8d 83 75 e0 ff ff    	lea    eax,[ebx-0x1f8b]
 804932e:	50                   	push   eax
 804932f:	e8 9c fd ff ff       	call   80490d0 <__isoc99_scanf@plt>
 8049334:	83 c4 10             	add    esp,0x10
 8049337:	83 ec 08             	sub    esp,0x8
 804933a:	8d 45 90             	lea    eax,[ebp-0x70]
 804933d:	50                   	push   eax
 804933e:	8d 83 7b e0 ff ff    	lea    eax,[ebx-0x1f85]
 8049344:	50                   	push   eax
 8049345:	e8 06 fd ff ff       	call   8049050 <printf@plt>
 804934a:	83 c4 10             	add    esp,0x10
 804934d:	90                   	nop
 804934e:	8b 45 f4             	mov    eax,DWORD PTR [ebp-0xc]
 8049351:	65 2b 05 14 00 00 00 	sub    eax,DWORD PTR gs:0x14
 8049358:	74 05                	je     804935f <welcome+0x6d>
 804935a:	e8 61 00 00 00       	call   80493c0 <__stack_chk_fail_local>
 804935f:	8b 5d fc             	mov    ebx,DWORD PTR [ebp-0x4]
 8049362:	c9                   	leave
 8049363:	c3                   	ret

08049364 <main>:
 8049364:	8d 4c 24 04          	lea    ecx,[esp+0x4]
 8049368:	83 e4 f0             	and    esp,0xfffffff0
 804936b:	ff 71 fc             	push   DWORD PTR [ecx-0x4]
 804936e:	55                   	push   ebp
 804936f:	89 e5                	mov    ebp,esp
 8049371:	53                   	push   ebx
 8049372:	51                   	push   ecx
 8049373:	e8 b8 fd ff ff       	call   8049130 <__x86.get_pc_thunk.bx>
 8049378:	81 c3 88 2c 00 00    	add    ebx,0x2c88
 804937e:	83 ec 0c             	sub    esp,0xc
 8049381:	8d 83 88 e0 ff ff    	lea    eax,[ebx-0x1f78]
 8049387:	50                   	push   eax
 8049388:	e8 03 fd ff ff       	call   8049090 <puts@plt>
 804938d:	83 c4 10             	add    esp,0x10
 8049390:	e8 5d ff ff ff       	call   80492f2 <welcome>
 8049395:	e8 5c fe ff ff       	call   80491f6 <login>
 804939a:	83 ec 0c             	sub    esp,0xc
 804939d:	8d 83 b0 e0 ff ff    	lea    eax,[ebx-0x1f50]
 80493a3:	50                   	push   eax
 80493a4:	e8 e7 fc ff ff       	call   8049090 <puts@plt>
 80493a9:	83 c4 10             	add    esp,0x10
 80493ac:	b8 00 00 00 00       	mov    eax,0x0
 80493b1:	8d 65 f8             	lea    esp,[ebp-0x8]
 80493b4:	59                   	pop    ecx
 80493b5:	5b                   	pop    ebx
 80493b6:	5d                   	pop    ebp
 80493b7:	8d 61 fc             	lea    esp,[ecx-0x4]
 80493ba:	c3                   	ret
 80493bb:	66 90                	xchg   ax,ax
 80493bd:	66 90                	xchg   ax,ax
 80493bf:	90                   	nop

080493c0 <__stack_chk_fail_local>:
 80493c0:	f3 0f 1e fb          	endbr32
 80493c4:	53                   	push   ebx
 80493c5:	e8 66 fd ff ff       	call   8049130 <__x86.get_pc_thunk.bx>
 80493ca:	81 c3 36 2c 00 00    	add    ebx,0x2c36
 80493d0:	83 ec 08             	sub    esp,0x8
 80493d3:	e8 98 fc ff ff       	call   8049070 <__stack_chk_fail@plt>

Disassembly of section .fini:

080493d8 <_fini>:
 80493d8:	f3 0f 1e fb          	endbr32
 80493dc:	53                   	push   ebx
 80493dd:	83 ec 08             	sub    esp,0x8
 80493e0:	e8 4b fd ff ff       	call   8049130 <__x86.get_pc_thunk.bx>
 80493e5:	81 c3 1b 2c 00 00    	add    ebx,0x2c1b
 80493eb:	83 c4 08             	add    esp,0x8
 80493ee:	5b                   	pop    ebx
 80493ef:	c3                   	ret
